Archive member included to satisfy reference by file (symbol)

/usr/local/mcuxpressoide-10.2.0_759/ide/tools/bin/../lib/gcc/arm-none-eabi/7.2.1/../../../../arm-none-eabi/lib/thumb/v7-m/libcr_c.a(__weak__main.o)
                              ./Drivers/cr_startup_lpc175x_6x.o (__main)
/usr/local/mcuxpressoide-10.2.0_759/ide/tools/bin/../lib/gcc/arm-none-eabi/7.2.1/thumb/v7-m/libcr_eabihelpers.a(double.o)
                              ./Drivers/DR_ADC_5canales_Timer.o (__aeabi_ddiv)
/usr/local/mcuxpressoide-10.2.0_759/ide/tools/bin/../lib/gcc/arm-none-eabi/7.2.1/thumb/v7-m/libcr_eabihelpers.a(float.o)
                              ./Drivers/DR_SysTick.o (__aeabi_fmul)

Discarded input sections

 .group         0x0000000000000000        0xc ./Primitivas/PR_LCD.o
 .group         0x0000000000000000        0xc ./Primitivas/PR_LCD.o
 .group         0x0000000000000000        0xc ./Primitivas/PR_LCD.o
 .group         0x0000000000000000        0xc ./Primitivas/PR_LCD.o
 .group         0x0000000000000000        0xc ./Primitivas/PR_LCD.o
 .group         0x0000000000000000        0xc ./Primitivas/PR_LCD.o
 .group         0x0000000000000000        0xc ./Primitivas/PR_LCD.o
 .text          0x0000000000000000        0x0 ./Primitivas/PR_LCD.o
 .data          0x0000000000000000        0x0 ./Primitivas/PR_LCD.o
 .bss           0x0000000000000000        0x0 ./Primitivas/PR_LCD.o
 .group         0x0000000000000000        0xc ./Primitivas/PR_Mediana_5canales.o
 .group         0x0000000000000000        0xc ./Primitivas/PR_Mediana_5canales.o
 .group         0x0000000000000000        0xc ./Primitivas/PR_Mediana_5canales.o
 .group         0x0000000000000000        0xc ./Primitivas/PR_Mediana_5canales.o
 .group         0x0000000000000000        0xc ./Primitivas/PR_Mediana_5canales.o
 .group         0x0000000000000000        0xc ./Primitivas/PR_Mediana_5canales.o
 .group         0x0000000000000000        0xc ./Primitivas/PR_Mediana_5canales.o
 .text          0x0000000000000000        0x0 ./Primitivas/PR_Mediana_5canales.o
 .data          0x0000000000000000        0x0 ./Primitivas/PR_Mediana_5canales.o
 .bss           0x0000000000000000        0x0 ./Primitivas/PR_Mediana_5canales.o
 .debug_macro   0x0000000000000000      0xa66 ./Primitivas/PR_Mediana_5canales.o
 .debug_macro   0x0000000000000000       0x2e ./Primitivas/PR_Mediana_5canales.o
 .debug_macro   0x0000000000000000      0x7c3 ./Primitivas/PR_Mediana_5canales.o
 .debug_macro   0x0000000000000000       0x46 ./Primitivas/PR_Mediana_5canales.o
 .debug_macro   0x0000000000000000       0x2e ./Primitivas/PR_Mediana_5canales.o
 .group         0x0000000000000000        0xc ./Primitivas/PR_Teclas.o
 .group         0x0000000000000000        0xc ./Primitivas/PR_Teclas.o
 .group         0x0000000000000000        0xc ./Primitivas/PR_Teclas.o
 .group         0x0000000000000000        0xc ./Primitivas/PR_Teclas.o
 .group         0x0000000000000000        0xc ./Primitivas/PR_Teclas.o
 .group         0x0000000000000000        0xc ./Primitivas/PR_Teclas.o
 .text          0x0000000000000000        0x0 ./Primitivas/PR_Teclas.o
 .data          0x0000000000000000        0x0 ./Primitivas/PR_Teclas.o
 .bss           0x0000000000000000        0x0 ./Primitivas/PR_Teclas.o
 .debug_macro   0x0000000000000000      0xa66 ./Primitivas/PR_Teclas.o
 .debug_macro   0x0000000000000000       0x2e ./Primitivas/PR_Teclas.o
 .debug_macro   0x0000000000000000       0x46 ./Primitivas/PR_Teclas.o
 .group         0x0000000000000000        0xc ./Primitivas/PR_UART_0.o
 .group         0x0000000000000000        0xc ./Primitivas/PR_UART_0.o
 .group         0x0000000000000000        0xc ./Primitivas/PR_UART_0.o
 .group         0x0000000000000000        0xc ./Primitivas/PR_UART_0.o
 .text          0x0000000000000000        0x0 ./Primitivas/PR_UART_0.o
 .data          0x0000000000000000        0x0 ./Primitivas/PR_UART_0.o
 .bss           0x0000000000000000        0x0 ./Primitivas/PR_UART_0.o
 .text.Transmitir
                0x0000000000000000       0x42 ./Primitivas/PR_UART_0.o
 .debug_macro   0x0000000000000000      0xa66 ./Primitivas/PR_UART_0.o
 .debug_macro   0x0000000000000000       0x2e ./Primitivas/PR_UART_0.o
 .debug_macro   0x0000000000000000      0x7c3 ./Primitivas/PR_UART_0.o
 .debug_macro   0x0000000000000000       0x46 ./Primitivas/PR_UART_0.o
 .group         0x0000000000000000        0xc ./Drivers/DR_ADC_5canales_Timer.o
 .group         0x0000000000000000        0xc ./Drivers/DR_ADC_5canales_Timer.o
 .group         0x0000000000000000        0xc ./Drivers/DR_ADC_5canales_Timer.o
 .group         0x0000000000000000        0xc ./Drivers/DR_ADC_5canales_Timer.o
 .group         0x0000000000000000        0xc ./Drivers/DR_ADC_5canales_Timer.o
 .group         0x0000000000000000        0xc ./Drivers/DR_ADC_5canales_Timer.o
 .text          0x0000000000000000        0x0 ./Drivers/DR_ADC_5canales_Timer.o
 .data          0x0000000000000000        0x0 ./Drivers/DR_ADC_5canales_Timer.o
 .bss           0x0000000000000000        0x0 ./Drivers/DR_ADC_5canales_Timer.o
 .text.Stop_Sampling
                0x0000000000000000       0x4c ./Drivers/DR_ADC_5canales_Timer.o
 .debug_macro   0x0000000000000000      0xa66 ./Drivers/DR_ADC_5canales_Timer.o
 .debug_macro   0x0000000000000000       0x2e ./Drivers/DR_ADC_5canales_Timer.o
 .debug_macro   0x0000000000000000      0x7c3 ./Drivers/DR_ADC_5canales_Timer.o
 .debug_macro   0x0000000000000000       0x46 ./Drivers/DR_ADC_5canales_Timer.o
 .debug_macro   0x0000000000000000       0x2e ./Drivers/DR_ADC_5canales_Timer.o
 .debug_macro   0x0000000000000000       0x10 ./Drivers/DR_ADC_5canales_Timer.o
 .group         0x0000000000000000        0xc ./Drivers/DR_GPIO.o
 .group         0x0000000000000000        0xc ./Drivers/DR_GPIO.o
 .group         0x0000000000000000        0xc ./Drivers/DR_GPIO.o
 .group         0x0000000000000000        0xc ./Drivers/DR_GPIO.o
 .text          0x0000000000000000        0x0 ./Drivers/DR_GPIO.o
 .data          0x0000000000000000        0x0 ./Drivers/DR_GPIO.o
 .bss           0x0000000000000000        0x0 ./Drivers/DR_GPIO.o
 .debug_macro   0x0000000000000000      0xa66 ./Drivers/DR_GPIO.o
 .debug_macro   0x0000000000000000       0x2e ./Drivers/DR_GPIO.o
 .debug_macro   0x0000000000000000      0x7c9 ./Drivers/DR_GPIO.o
 .debug_macro   0x0000000000000000       0x28 ./Drivers/DR_GPIO.o
 .group         0x0000000000000000        0xc ./Drivers/DR_Init.o
 .group         0x0000000000000000        0xc ./Drivers/DR_Init.o
 .group         0x0000000000000000        0xc ./Drivers/DR_Init.o
 .group         0x0000000000000000        0xc ./Drivers/DR_Init.o
 .group         0x0000000000000000        0xc ./Drivers/DR_Init.o
 .group         0x0000000000000000        0xc ./Drivers/DR_Init.o
 .group         0x0000000000000000        0xc ./Drivers/DR_Init.o
 .group         0x0000000000000000        0xc ./Drivers/DR_Init.o
 .group         0x0000000000000000        0xc ./Drivers/DR_Init.o
 .group         0x0000000000000000        0xc ./Drivers/DR_Init.o
 .group         0x0000000000000000        0xc ./Drivers/DR_Init.o
 .group         0x0000000000000000        0xc ./Drivers/DR_Init.o
 .group         0x0000000000000000        0xc ./Drivers/DR_Init.o
 .group         0x0000000000000000        0xc ./Drivers/DR_Init.o
 .text          0x0000000000000000        0x0 ./Drivers/DR_Init.o
 .data          0x0000000000000000        0x0 ./Drivers/DR_Init.o
 .bss           0x0000000000000000        0x0 ./Drivers/DR_Init.o
 .debug_macro   0x0000000000000000      0xa66 ./Drivers/DR_Init.o
 .debug_macro   0x0000000000000000       0x2e ./Drivers/DR_Init.o
 .debug_macro   0x0000000000000000      0x7c3 ./Drivers/DR_Init.o
 .debug_macro   0x0000000000000000       0x2e ./Drivers/DR_Init.o
 .debug_macro   0x0000000000000000       0x46 ./Drivers/DR_Init.o
 .debug_macro   0x0000000000000000      0x11e ./Drivers/DR_Init.o
 .group         0x0000000000000000        0xc ./Drivers/DR_LED_IO.o
 .group         0x0000000000000000        0xc ./Drivers/DR_LED_IO.o
 .group         0x0000000000000000        0xc ./Drivers/DR_LED_IO.o
 .group         0x0000000000000000        0xc ./Drivers/DR_LED_IO.o
 .group         0x0000000000000000        0xc ./Drivers/DR_LED_IO.o
 .group         0x0000000000000000        0xc ./Drivers/DR_LED_IO.o
 .text          0x0000000000000000        0x0 ./Drivers/DR_LED_IO.o
 .data          0x0000000000000000        0x0 ./Drivers/DR_LED_IO.o
 .bss           0x0000000000000000        0x0 ./Drivers/DR_LED_IO.o
 .text.LED_Toggle
                0x0000000000000000       0xbc ./Drivers/DR_LED_IO.o
 .text.LED_GetStatus
                0x0000000000000000       0x78 ./Drivers/DR_LED_IO.o
 .debug_macro   0x0000000000000000      0xa66 ./Drivers/DR_LED_IO.o
 .debug_macro   0x0000000000000000       0x2e ./Drivers/DR_LED_IO.o
 .debug_macro   0x0000000000000000      0x7c3 ./Drivers/DR_LED_IO.o
 .debug_macro   0x0000000000000000       0x2e ./Drivers/DR_LED_IO.o
 .debug_macro   0x0000000000000000       0x46 ./Drivers/DR_LED_IO.o
 .group         0x0000000000000000        0xc ./Drivers/DR_PINSEL.o
 .group         0x0000000000000000        0xc ./Drivers/DR_PINSEL.o
 .group         0x0000000000000000        0xc ./Drivers/DR_PINSEL.o
 .group         0x0000000000000000        0xc ./Drivers/DR_PINSEL.o
 .text          0x0000000000000000        0x0 ./Drivers/DR_PINSEL.o
 .data          0x0000000000000000        0x0 ./Drivers/DR_PINSEL.o
 .bss           0x0000000000000000        0x0 ./Drivers/DR_PINSEL.o
 .text.SetOpenDrainMode
                0x0000000000000000       0x70 ./Drivers/DR_PINSEL.o
 .debug_macro   0x0000000000000000      0xa66 ./Drivers/DR_PINSEL.o
 .debug_macro   0x0000000000000000       0x2e ./Drivers/DR_PINSEL.o
 .debug_macro   0x0000000000000000      0x7c3 ./Drivers/DR_PINSEL.o
 .group         0x0000000000000000        0xc ./Drivers/DR_SysTick.o
 .group         0x0000000000000000        0xc ./Drivers/DR_SysTick.o
 .group         0x0000000000000000        0xc ./Drivers/DR_SysTick.o
 .group         0x0000000000000000        0xc ./Drivers/DR_SysTick.o
 .group         0x0000000000000000        0xc ./Drivers/DR_SysTick.o
 .group         0x0000000000000000        0xc ./Drivers/DR_SysTick.o
 .group         0x0000000000000000        0xc ./Drivers/DR_SysTick.o
 .group         0x0000000000000000        0xc ./Drivers/DR_SysTick.o
 .group         0x0000000000000000        0xc ./Drivers/DR_SysTick.o
 .group         0x0000000000000000        0xc ./Drivers/DR_SysTick.o
 .group         0x0000000000000000        0xc ./Drivers/DR_SysTick.o
 .group         0x0000000000000000        0xc ./Drivers/DR_SysTick.o
 .group         0x0000000000000000        0xc ./Drivers/DR_SysTick.o
 .group         0x0000000000000000        0xc ./Drivers/DR_SysTick.o
 .text          0x0000000000000000        0x0 ./Drivers/DR_SysTick.o
 .data          0x0000000000000000        0x0 ./Drivers/DR_SysTick.o
 .bss           0x0000000000000000        0x0 ./Drivers/DR_SysTick.o
 .debug_macro   0x0000000000000000      0xa66 ./Drivers/DR_SysTick.o
 .debug_macro   0x0000000000000000       0x2e ./Drivers/DR_SysTick.o
 .debug_macro   0x0000000000000000      0x7c9 ./Drivers/DR_SysTick.o
 .debug_macro   0x0000000000000000       0x2e ./Drivers/DR_SysTick.o
 .debug_macro   0x0000000000000000       0x46 ./Drivers/DR_SysTick.o
 .debug_macro   0x0000000000000000      0x11e ./Drivers/DR_SysTick.o
 .debug_macro   0x0000000000000000       0x28 ./Drivers/DR_SysTick.o
 .debug_macro   0x0000000000000000       0x2e ./Drivers/DR_SysTick.o
 .debug_macro   0x0000000000000000       0x3a ./Drivers/DR_SysTick.o
 .debug_macro   0x0000000000000000       0x16 ./Drivers/DR_SysTick.o
 .debug_macro   0x0000000000000000       0x1c ./Drivers/DR_SysTick.o
 .debug_macro   0x0000000000000000       0x1c ./Drivers/DR_SysTick.o
 .debug_macro   0x0000000000000000       0x10 ./Drivers/DR_SysTick.o
 .debug_macro   0x0000000000000000       0x16 ./Drivers/DR_SysTick.o
 .group         0x0000000000000000        0xc ./Drivers/DR_Teclas.o
 .group         0x0000000000000000        0xc ./Drivers/DR_Teclas.o
 .group         0x0000000000000000        0xc ./Drivers/DR_Teclas.o
 .group         0x0000000000000000        0xc ./Drivers/DR_Teclas.o
 .group         0x0000000000000000        0xc ./Drivers/DR_Teclas.o
 .group         0x0000000000000000        0xc ./Drivers/DR_Teclas.o
 .text          0x0000000000000000        0x0 ./Drivers/DR_Teclas.o
 .data          0x0000000000000000        0x0 ./Drivers/DR_Teclas.o
 .bss           0x0000000000000000        0x0 ./Drivers/DR_Teclas.o
 .debug_macro   0x0000000000000000      0xa66 ./Drivers/DR_Teclas.o
 .debug_macro   0x0000000000000000       0x2e ./Drivers/DR_Teclas.o
 .debug_macro   0x0000000000000000      0x7c9 ./Drivers/DR_Teclas.o
 .debug_macro   0x0000000000000000       0x28 ./Drivers/DR_Teclas.o
 .debug_macro   0x0000000000000000       0x46 ./Drivers/DR_Teclas.o
 .debug_macro   0x0000000000000000       0x28 ./Drivers/DR_Teclas.o
 .group         0x0000000000000000        0xc ./Drivers/DR_UART_0.o
 .group         0x0000000000000000        0xc ./Drivers/DR_UART_0.o
 .group         0x0000000000000000        0xc ./Drivers/DR_UART_0.o
 .group         0x0000000000000000        0xc ./Drivers/DR_UART_0.o
 .text          0x0000000000000000        0x0 ./Drivers/DR_UART_0.o
 .data          0x0000000000000000        0x0 ./Drivers/DR_UART_0.o
 .bss           0x0000000000000000        0x0 ./Drivers/DR_UART_0.o
 .debug_macro   0x0000000000000000      0xa66 ./Drivers/DR_UART_0.o
 .debug_macro   0x0000000000000000       0x2e ./Drivers/DR_UART_0.o
 .debug_macro   0x0000000000000000      0x7c3 ./Drivers/DR_UART_0.o
 .debug_macro   0x0000000000000000       0x46 ./Drivers/DR_UART_0.o
 .group         0x0000000000000000        0xc ./Drivers/FW_LCD.o
 .group         0x0000000000000000        0xc ./Drivers/FW_LCD.o
 .group         0x0000000000000000        0xc ./Drivers/FW_LCD.o
 .group         0x0000000000000000        0xc ./Drivers/FW_LCD.o
 .group         0x0000000000000000        0xc ./Drivers/FW_LCD.o
 .group         0x0000000000000000        0xc ./Drivers/FW_LCD.o
 .group         0x0000000000000000        0xc ./Drivers/FW_LCD.o
 .text          0x0000000000000000        0x0 ./Drivers/FW_LCD.o
 .data          0x0000000000000000        0x0 ./Drivers/FW_LCD.o
 .bss           0x0000000000000000        0x0 ./Drivers/FW_LCD.o
 .debug_macro   0x0000000000000000      0xa66 ./Drivers/FW_LCD.o
 .debug_macro   0x0000000000000000       0x2e ./Drivers/FW_LCD.o
 .debug_macro   0x0000000000000000      0x7c3 ./Drivers/FW_LCD.o
 .debug_macro   0x0000000000000000       0x2e ./Drivers/FW_LCD.o
 .debug_macro   0x0000000000000000       0x46 ./Drivers/FW_LCD.o
 .debug_macro   0x0000000000000000      0x11e ./Drivers/FW_LCD.o
 .debug_macro   0x0000000000000000       0x28 ./Drivers/FW_LCD.o
 .group         0x0000000000000000        0xc ./Drivers/cr_startup_lpc175x_6x.o
 .text          0x0000000000000000        0x0 ./Drivers/cr_startup_lpc175x_6x.o
 .data          0x0000000000000000        0x0 ./Drivers/cr_startup_lpc175x_6x.o
 .bss           0x0000000000000000        0x0 ./Drivers/cr_startup_lpc175x_6x.o
 .debug_macro   0x0000000000000000      0xa66 ./Drivers/cr_startup_lpc175x_6x.o
 .group         0x0000000000000000        0xc ./Drivers/crp.o
 .group         0x0000000000000000        0xc ./Drivers/crp.o
 .text          0x0000000000000000        0x0 ./Drivers/crp.o
 .data          0x0000000000000000        0x0 ./Drivers/crp.o
 .bss           0x0000000000000000        0x0 ./Drivers/crp.o
 .debug_macro   0x0000000000000000      0xa66 ./Drivers/crp.o
 .group         0x0000000000000000        0xc ./Aplicacion/AP_Mano_Muestreo.o
 .group         0x0000000000000000        0xc ./Aplicacion/AP_Mano_Muestreo.o
 .group         0x0000000000000000        0xc ./Aplicacion/AP_Mano_Muestreo.o
 .group         0x0000000000000000        0xc ./Aplicacion/AP_Mano_Muestreo.o
 .group         0x0000000000000000        0xc ./Aplicacion/AP_Mano_Muestreo.o
 .group         0x0000000000000000        0xc ./Aplicacion/AP_Mano_Muestreo.o
 .group         0x0000000000000000        0xc ./Aplicacion/AP_Mano_Muestreo.o
 .group         0x0000000000000000        0xc ./Aplicacion/AP_Mano_Muestreo.o
 .group         0x0000000000000000        0xc ./Aplicacion/AP_Mano_Muestreo.o
 .group         0x0000000000000000        0xc ./Aplicacion/AP_Mano_Muestreo.o
 .group         0x0000000000000000        0xc ./Aplicacion/AP_Mano_Muestreo.o
 .group         0x0000000000000000        0xc ./Aplicacion/AP_Mano_Muestreo.o
 .group         0x0000000000000000        0xc ./Aplicacion/AP_Mano_Muestreo.o
 .group         0x0000000000000000        0xc ./Aplicacion/AP_Mano_Muestreo.o
 .text          0x0000000000000000        0x0 ./Aplicacion/AP_Mano_Muestreo.o
 .data          0x0000000000000000        0x0 ./Aplicacion/AP_Mano_Muestreo.o
 .bss           0x0000000000000000        0x0 ./Aplicacion/AP_Mano_Muestreo.o
 .debug_macro   0x0000000000000000      0xa66 ./Aplicacion/AP_Mano_Muestreo.o
 .debug_macro   0x0000000000000000       0x2e ./Aplicacion/AP_Mano_Muestreo.o
 .debug_macro   0x0000000000000000      0x7c3 ./Aplicacion/AP_Mano_Muestreo.o
 .debug_macro   0x0000000000000000       0x46 ./Aplicacion/AP_Mano_Muestreo.o
 .debug_macro   0x0000000000000000       0x2e ./Aplicacion/AP_Mano_Muestreo.o
 .debug_macro   0x0000000000000000       0x10 ./Aplicacion/AP_Mano_Muestreo.o
 .debug_macro   0x0000000000000000       0x16 ./Aplicacion/AP_Mano_Muestreo.o
 .debug_macro   0x0000000000000000       0x2e ./Aplicacion/AP_Mano_Muestreo.o
 .debug_macro   0x0000000000000000      0x11e ./Aplicacion/AP_Mano_Muestreo.o
 .debug_macro   0x0000000000000000       0x28 ./Aplicacion/AP_Mano_Muestreo.o
 .debug_macro   0x0000000000000000       0x16 ./Aplicacion/AP_Mano_Muestreo.o
 .debug_macro   0x0000000000000000       0x3a ./Aplicacion/AP_Mano_Muestreo.o
 .debug_macro   0x0000000000000000       0x10 ./Aplicacion/AP_Mano_Muestreo.o
 .group         0x0000000000000000        0xc ./Aplicacion/AP_UART_0.o
 .group         0x0000000000000000        0xc ./Aplicacion/AP_UART_0.o
 .group         0x0000000000000000        0xc ./Aplicacion/AP_UART_0.o
 .group         0x0000000000000000        0xc ./Aplicacion/AP_UART_0.o
 .group         0x0000000000000000        0xc ./Aplicacion/AP_UART_0.o
 .text          0x0000000000000000        0x0 ./Aplicacion/AP_UART_0.o
 .data          0x0000000000000000        0x0 ./Aplicacion/AP_UART_0.o
 .bss           0x0000000000000000        0x0 ./Aplicacion/AP_UART_0.o
 .debug_macro   0x0000000000000000      0xa66 ./Aplicacion/AP_UART_0.o
 .debug_macro   0x0000000000000000       0x2e ./Aplicacion/AP_UART_0.o
 .debug_macro   0x0000000000000000      0x7c3 ./Aplicacion/AP_UART_0.o
 .debug_macro   0x0000000000000000       0x46 ./Aplicacion/AP_UART_0.o
 .debug_macro   0x0000000000000000       0x1c ./Aplicacion/AP_UART_0.o
 .group         0x0000000000000000        0xc ./Aplicacion/MDE_Adquisidor.o
 .group         0x0000000000000000        0xc ./Aplicacion/MDE_Adquisidor.o
 .group         0x0000000000000000        0xc ./Aplicacion/MDE_Adquisidor.o
 .group         0x0000000000000000        0xc ./Aplicacion/MDE_Adquisidor.o
 .group         0x0000000000000000        0xc ./Aplicacion/MDE_Adquisidor.o
 .group         0x0000000000000000        0xc ./Aplicacion/MDE_Adquisidor.o
 .group         0x0000000000000000        0xc ./Aplicacion/MDE_Adquisidor.o
 .group         0x0000000000000000        0xc ./Aplicacion/MDE_Adquisidor.o
 .group         0x0000000000000000        0xc ./Aplicacion/MDE_Adquisidor.o
 .group         0x0000000000000000        0xc ./Aplicacion/MDE_Adquisidor.o
 .group         0x0000000000000000        0xc ./Aplicacion/MDE_Adquisidor.o
 .group         0x0000000000000000        0xc ./Aplicacion/MDE_Adquisidor.o
 .group         0x0000000000000000        0xc ./Aplicacion/MDE_Adquisidor.o
 .group         0x0000000000000000        0xc ./Aplicacion/MDE_Adquisidor.o
 .text          0x0000000000000000        0x0 ./Aplicacion/MDE_Adquisidor.o
 .data          0x0000000000000000        0x0 ./Aplicacion/MDE_Adquisidor.o
 .bss           0x0000000000000000        0x0 ./Aplicacion/MDE_Adquisidor.o
 .debug_macro   0x0000000000000000      0xa66 ./Aplicacion/MDE_Adquisidor.o
 .debug_macro   0x0000000000000000       0x2e ./Aplicacion/MDE_Adquisidor.o
 .debug_macro   0x0000000000000000      0x7c9 ./Aplicacion/MDE_Adquisidor.o
 .debug_macro   0x0000000000000000       0x2e ./Aplicacion/MDE_Adquisidor.o
 .debug_macro   0x0000000000000000       0x46 ./Aplicacion/MDE_Adquisidor.o
 .debug_macro   0x0000000000000000      0x11e ./Aplicacion/MDE_Adquisidor.o
 .debug_macro   0x0000000000000000       0x28 ./Aplicacion/MDE_Adquisidor.o
 .debug_macro   0x0000000000000000       0x2e ./Aplicacion/MDE_Adquisidor.o
 .debug_macro   0x0000000000000000       0x16 ./Aplicacion/MDE_Adquisidor.o
 .debug_macro   0x0000000000000000       0x3a ./Aplicacion/MDE_Adquisidor.o
 .debug_macro   0x0000000000000000       0x16 ./Aplicacion/MDE_Adquisidor.o
 .debug_macro   0x0000000000000000       0x1c ./Aplicacion/MDE_Adquisidor.o
 .debug_macro   0x0000000000000000       0x1c ./Aplicacion/MDE_Adquisidor.o
 .debug_macro   0x0000000000000000       0x10 ./Aplicacion/MDE_Adquisidor.o
 .group         0x0000000000000000        0xc ./Aplicacion/main.o
 .group         0x0000000000000000        0xc ./Aplicacion/main.o
 .group         0x0000000000000000        0xc ./Aplicacion/main.o
 .group         0x0000000000000000        0xc ./Aplicacion/main.o
 .group         0x0000000000000000        0xc ./Aplicacion/main.o
 .group         0x0000000000000000        0xc ./Aplicacion/main.o
 .group         0x0000000000000000        0xc ./Aplicacion/main.o
 .group         0x0000000000000000        0xc ./Aplicacion/main.o
 .group         0x0000000000000000        0xc ./Aplicacion/main.o
 .group         0x0000000000000000        0xc ./Aplicacion/main.o
 .group         0x0000000000000000        0xc ./Aplicacion/main.o
 .group         0x0000000000000000        0xc ./Aplicacion/main.o
 .group         0x0000000000000000        0xc ./Aplicacion/main.o
 .group         0x0000000000000000        0xc ./Aplicacion/main.o
 .group         0x0000000000000000        0xc ./Aplicacion/main.o
 .text          0x0000000000000000        0x0 ./Aplicacion/main.o
 .data          0x0000000000000000        0x0 ./Aplicacion/main.o
 .bss           0x0000000000000000        0x0 ./Aplicacion/main.o
 .debug_macro   0x0000000000000000      0xa66 ./Aplicacion/main.o
 .debug_macro   0x0000000000000000       0x2e ./Aplicacion/main.o
 .debug_macro   0x0000000000000000      0x7c3 ./Aplicacion/main.o
 .debug_macro   0x0000000000000000       0x2e ./Aplicacion/main.o
 .debug_macro   0x0000000000000000       0x46 ./Aplicacion/main.o
 .debug_macro   0x0000000000000000      0x11e ./Aplicacion/main.o
 .debug_macro   0x0000000000000000       0x2e ./Aplicacion/main.o
 .debug_macro   0x0000000000000000       0x2e ./Aplicacion/main.o
 .debug_macro   0x0000000000000000       0x3a ./Aplicacion/main.o
 .debug_macro   0x0000000000000000       0x16 ./Aplicacion/main.o
 .debug_macro   0x0000000000000000       0x1c ./Aplicacion/main.o
 .debug_macro   0x0000000000000000       0x1c ./Aplicacion/main.o
 .debug_macro   0x0000000000000000       0x10 ./Aplicacion/main.o
 .debug_macro   0x0000000000000000       0x16 ./Aplicacion/main.o
 .text          0x0000000000000000        0x0 /usr/local/mcuxpressoide-10.2.0_759/ide/tools/bin/../lib/gcc/arm-none-eabi/7.2.1/../../../../arm-none-eabi/lib/thumb/v7-m/libcr_c.a(__weak__main.o)
 .data          0x0000000000000000        0x0 /usr/local/mcuxpressoide-10.2.0_759/ide/tools/bin/../lib/gcc/arm-none-eabi/7.2.1/../../../../arm-none-eabi/lib/thumb/v7-m/libcr_c.a(__weak__main.o)
 .bss           0x0000000000000000        0x0 /usr/local/mcuxpressoide-10.2.0_759/ide/tools/bin/../lib/gcc/arm-none-eabi/7.2.1/../../../../arm-none-eabi/lib/thumb/v7-m/libcr_c.a(__weak__main.o)
 .text          0x0000000000000000        0x0 /usr/local/mcuxpressoide-10.2.0_759/ide/tools/bin/../lib/gcc/arm-none-eabi/7.2.1/thumb/v7-m/libcr_eabihelpers.a(double.o)
 .data          0x0000000000000000        0x0 /usr/local/mcuxpressoide-10.2.0_759/ide/tools/bin/../lib/gcc/arm-none-eabi/7.2.1/thumb/v7-m/libcr_eabihelpers.a(double.o)
 .bss           0x0000000000000000        0x0 /usr/local/mcuxpressoide-10.2.0_759/ide/tools/bin/../lib/gcc/arm-none-eabi/7.2.1/thumb/v7-m/libcr_eabihelpers.a(double.o)
 .text.__aeabi_dmul
                0x0000000000000000      0x10c /usr/local/mcuxpressoide-10.2.0_759/ide/tools/bin/../lib/gcc/arm-none-eabi/7.2.1/thumb/v7-m/libcr_eabihelpers.a(double.o)
 .text.__aeabi_dsub
                0x0000000000000000      0x1b0 /usr/local/mcuxpressoide-10.2.0_759/ide/tools/bin/../lib/gcc/arm-none-eabi/7.2.1/thumb/v7-m/libcr_eabihelpers.a(double.o)
 .text.__aeabi_dadd
                0x0000000000000000      0x10c /usr/local/mcuxpressoide-10.2.0_759/ide/tools/bin/../lib/gcc/arm-none-eabi/7.2.1/thumb/v7-m/libcr_eabihelpers.a(double.o)
 .text.__aeabi_drsub
                0x0000000000000000       0x14 /usr/local/mcuxpressoide-10.2.0_759/ide/tools/bin/../lib/gcc/arm-none-eabi/7.2.1/thumb/v7-m/libcr_eabihelpers.a(double.o)
 .text.__aeabi_dneg
                0x0000000000000000        0x8 /usr/local/mcuxpressoide-10.2.0_759/ide/tools/bin/../lib/gcc/arm-none-eabi/7.2.1/thumb/v7-m/libcr_eabihelpers.a(double.o)
 .text.__aeabi_d2f
                0x0000000000000000       0x54 /usr/local/mcuxpressoide-10.2.0_759/ide/tools/bin/../lib/gcc/arm-none-eabi/7.2.1/thumb/v7-m/libcr_eabihelpers.a(double.o)
 .text.__aeabi_d2iz
                0x0000000000000000       0x40 /usr/local/mcuxpressoide-10.2.0_759/ide/tools/bin/../lib/gcc/arm-none-eabi/7.2.1/thumb/v7-m/libcr_eabihelpers.a(double.o)
 .text.__aeabi_d2lz
                0x0000000000000000       0x6e /usr/local/mcuxpressoide-10.2.0_759/ide/tools/bin/../lib/gcc/arm-none-eabi/7.2.1/thumb/v7-m/libcr_eabihelpers.a(double.o)
 .text.__aeabi_d2ulz
                0x0000000000000000       0x5a /usr/local/mcuxpressoide-10.2.0_759/ide/tools/bin/../lib/gcc/arm-none-eabi/7.2.1/thumb/v7-m/libcr_eabihelpers.a(double.o)
 .text.__bhs_ul2d
                0x0000000000000000       0x8a /usr/local/mcuxpressoide-10.2.0_759/ide/tools/bin/../lib/gcc/arm-none-eabi/7.2.1/thumb/v7-m/libcr_eabihelpers.a(double.o)
 .text.__aeabi_i2d
                0x0000000000000000       0x12 /usr/local/mcuxpressoide-10.2.0_759/ide/tools/bin/../lib/gcc/arm-none-eabi/7.2.1/thumb/v7-m/libcr_eabihelpers.a(double.o)
 .text.__aeabi_l2d
                0x0000000000000000       0x1a /usr/local/mcuxpressoide-10.2.0_759/ide/tools/bin/../lib/gcc/arm-none-eabi/7.2.1/thumb/v7-m/libcr_eabihelpers.a(double.o)
 .text.__aeabi_ul2d
                0x0000000000000000        0x8 /usr/local/mcuxpressoide-10.2.0_759/ide/tools/bin/../lib/gcc/arm-none-eabi/7.2.1/thumb/v7-m/libcr_eabihelpers.a(double.o)
 .text.__aeabi_dcmpeq
                0x0000000000000000       0x2c /usr/local/mcuxpressoide-10.2.0_759/ide/tools/bin/../lib/gcc/arm-none-eabi/7.2.1/thumb/v7-m/libcr_eabihelpers.a(double.o)
 .text.__aeabi_dcmplt
                0x0000000000000000       0x54 /usr/local/mcuxpressoide-10.2.0_759/ide/tools/bin/../lib/gcc/arm-none-eabi/7.2.1/thumb/v7-m/libcr_eabihelpers.a(double.o)
 .text.__aeabi_dcmpgt
                0x0000000000000000       0x54 /usr/local/mcuxpressoide-10.2.0_759/ide/tools/bin/../lib/gcc/arm-none-eabi/7.2.1/thumb/v7-m/libcr_eabihelpers.a(double.o)
 .text.__aeabi_dcmple
                0x0000000000000000       0x54 /usr/local/mcuxpressoide-10.2.0_759/ide/tools/bin/../lib/gcc/arm-none-eabi/7.2.1/thumb/v7-m/libcr_eabihelpers.a(double.o)
 .text.__aeabi_dcmpge
                0x0000000000000000       0x54 /usr/local/mcuxpressoide-10.2.0_759/ide/tools/bin/../lib/gcc/arm-none-eabi/7.2.1/thumb/v7-m/libcr_eabihelpers.a(double.o)
 .text.__aeabi_dcmpun
                0x0000000000000000       0x1a /usr/local/mcuxpressoide-10.2.0_759/ide/tools/bin/../lib/gcc/arm-none-eabi/7.2.1/thumb/v7-m/libcr_eabihelpers.a(double.o)
 .text.__aeabi_cdcmple
                0x0000000000000000       0x24 /usr/local/mcuxpressoide-10.2.0_759/ide/tools/bin/../lib/gcc/arm-none-eabi/7.2.1/thumb/v7-m/libcr_eabihelpers.a(double.o)
 .text.__aeabi_cdrcmple
                0x0000000000000000       0x14 /usr/local/mcuxpressoide-10.2.0_759/ide/tools/bin/../lib/gcc/arm-none-eabi/7.2.1/thumb/v7-m/libcr_eabihelpers.a(double.o)
 .text          0x0000000000000000        0x0 /usr/local/mcuxpressoide-10.2.0_759/ide/tools/bin/../lib/gcc/arm-none-eabi/7.2.1/thumb/v7-m/libcr_eabihelpers.a(float.o)
 .data          0x0000000000000000        0x0 /usr/local/mcuxpressoide-10.2.0_759/ide/tools/bin/../lib/gcc/arm-none-eabi/7.2.1/thumb/v7-m/libcr_eabihelpers.a(float.o)
 .bss           0x0000000000000000        0x0 /usr/local/mcuxpressoide-10.2.0_759/ide/tools/bin/../lib/gcc/arm-none-eabi/7.2.1/thumb/v7-m/libcr_eabihelpers.a(float.o)
 .text.__aeabi_frsub
                0x0000000000000000        0xc /usr/local/mcuxpressoide-10.2.0_759/ide/tools/bin/../lib/gcc/arm-none-eabi/7.2.1/thumb/v7-m/libcr_eabihelpers.a(float.o)
 .text.__aeabi_fneg
                0x0000000000000000        0x6 /usr/local/mcuxpressoide-10.2.0_759/ide/tools/bin/../lib/gcc/arm-none-eabi/7.2.1/thumb/v7-m/libcr_eabihelpers.a(float.o)
 .text.__aeabi_f2iz
                0x0000000000000000       0x36 /usr/local/mcuxpressoide-10.2.0_759/ide/tools/bin/../lib/gcc/arm-none-eabi/7.2.1/thumb/v7-m/libcr_eabihelpers.a(float.o)
 .text.__aeabi_f2lz
                0x0000000000000000       0x5c /usr/local/mcuxpressoide-10.2.0_759/ide/tools/bin/../lib/gcc/arm-none-eabi/7.2.1/thumb/v7-m/libcr_eabihelpers.a(float.o)
 .text.__aeabi_f2ulz
                0x0000000000000000       0x3e /usr/local/mcuxpressoide-10.2.0_759/ide/tools/bin/../lib/gcc/arm-none-eabi/7.2.1/thumb/v7-m/libcr_eabihelpers.a(float.o)
 .text.__bhs_ul2f
                0x0000000000000000       0x46 /usr/local/mcuxpressoide-10.2.0_759/ide/tools/bin/../lib/gcc/arm-none-eabi/7.2.1/thumb/v7-m/libcr_eabihelpers.a(float.o)
 .text.__aeabi_i2f
                0x0000000000000000       0x12 /usr/local/mcuxpressoide-10.2.0_759/ide/tools/bin/../lib/gcc/arm-none-eabi/7.2.1/thumb/v7-m/libcr_eabihelpers.a(float.o)
 .text.__aeabi_l2f
                0x0000000000000000       0x1a /usr/local/mcuxpressoide-10.2.0_759/ide/tools/bin/../lib/gcc/arm-none-eabi/7.2.1/thumb/v7-m/libcr_eabihelpers.a(float.o)
 .text.__aeabi_ul2f
                0x0000000000000000        0x8 /usr/local/mcuxpressoide-10.2.0_759/ide/tools/bin/../lib/gcc/arm-none-eabi/7.2.1/thumb/v7-m/libcr_eabihelpers.a(float.o)
 .text.__aeabi_f2d
                0x0000000000000000       0x38 /usr/local/mcuxpressoide-10.2.0_759/ide/tools/bin/../lib/gcc/arm-none-eabi/7.2.1/thumb/v7-m/libcr_eabihelpers.a(float.o)
 .text.__aeabi_fcmpeq
                0x0000000000000000       0x1e /usr/local/mcuxpressoide-10.2.0_759/ide/tools/bin/../lib/gcc/arm-none-eabi/7.2.1/thumb/v7-m/libcr_eabihelpers.a(float.o)
 .text.__aeabi_fcmplt
                0x0000000000000000       0x3a /usr/local/mcuxpressoide-10.2.0_759/ide/tools/bin/../lib/gcc/arm-none-eabi/7.2.1/thumb/v7-m/libcr_eabihelpers.a(float.o)
 .text.__aeabi_fcmpgt
                0x0000000000000000       0x3a /usr/local/mcuxpressoide-10.2.0_759/ide/tools/bin/../lib/gcc/arm-none-eabi/7.2.1/thumb/v7-m/libcr_eabihelpers.a(float.o)
 .text.__aeabi_fcmple
                0x0000000000000000       0x3e /usr/local/mcuxpressoide-10.2.0_759/ide/tools/bin/../lib/gcc/arm-none-eabi/7.2.1/thumb/v7-m/libcr_eabihelpers.a(float.o)
 .text.__aeabi_fcmpge
                0x0000000000000000       0x3e /usr/local/mcuxpressoide-10.2.0_759/ide/tools/bin/../lib/gcc/arm-none-eabi/7.2.1/thumb/v7-m/libcr_eabihelpers.a(float.o)
 .text.__aeabi_fcmpun
                0x0000000000000000       0x1a /usr/local/mcuxpressoide-10.2.0_759/ide/tools/bin/../lib/gcc/arm-none-eabi/7.2.1/thumb/v7-m/libcr_eabihelpers.a(float.o)
 .text.__aeabi_cfcmple
                0x0000000000000000       0x20 /usr/local/mcuxpressoide-10.2.0_759/ide/tools/bin/../lib/gcc/arm-none-eabi/7.2.1/thumb/v7-m/libcr_eabihelpers.a(float.o)
 .text.__aeabi_cfrcmple
                0x0000000000000000        0xa /usr/local/mcuxpressoide-10.2.0_759/ide/tools/bin/../lib/gcc/arm-none-eabi/7.2.1/thumb/v7-m/libcr_eabihelpers.a(float.o)

Memory Configuration

Name             Origin             Length             Attributes
MFlash512        0x0000000000000000 0x0000000000080000 xr
RamLoc32         0x0000000010000000 0x0000000000008000 xrw
RamAHB32         0x000000002007c000 0x0000000000008000 xrw
*default*        0x0000000000000000 0xffffffffffffffff

Linker script and memory map

LOAD ./Primitivas/PR_LCD.o
LOAD ./Primitivas/PR_Mediana_5canales.o
LOAD ./Primitivas/PR_Teclas.o
LOAD ./Primitivas/PR_UART_0.o
LOAD ./Drivers/DR_ADC_5canales_Timer.o
LOAD ./Drivers/DR_GPIO.o
LOAD ./Drivers/DR_Init.o
LOAD ./Drivers/DR_LED_IO.o
LOAD ./Drivers/DR_PINSEL.o
LOAD ./Drivers/DR_SysTick.o
LOAD ./Drivers/DR_Teclas.o
LOAD ./Drivers/DR_UART_0.o
LOAD ./Drivers/FW_LCD.o
LOAD ./Drivers/cr_startup_lpc175x_6x.o
LOAD ./Drivers/crp.o
LOAD ./Aplicacion/AP_Mano_Muestreo.o
LOAD ./Aplicacion/AP_UART_0.o
LOAD ./Aplicacion/MDE_Adquisidor.o
LOAD ./Aplicacion/main.o
START GROUP
LOAD /usr/local/mcuxpressoide-10.2.0_759/ide/tools/bin/../lib/gcc/arm-none-eabi/7.2.1/../../../../arm-none-eabi/lib/thumb/v7-m/libcr_c.a
LOAD /usr/local/mcuxpressoide-10.2.0_759/ide/tools/bin/../lib/gcc/arm-none-eabi/7.2.1/thumb/v7-m/libcr_eabihelpers.a
END GROUP
                0x0000000000000000                __base_MFlash512 = 0x0
                0x0000000000000000                __base_Flash = 0x0
                0x0000000000080000                __top_MFlash512 = 0x80000
                0x0000000000080000                __top_Flash = 0x80000
                0x0000000010000000                __base_RamLoc32 = 0x10000000
                0x0000000010000000                __base_RAM = 0x10000000
                0x0000000010008000                __top_RamLoc32 = 0x10008000
                0x0000000010008000                __top_RAM = 0x10008000
                0x000000002007c000                __base_RamAHB32 = 0x2007c000
                0x000000002007c000                __base_RAM2 = 0x2007c000
                0x0000000020084000                __top_RamAHB32 = 0x20084000
                0x0000000020084000                __top_RAM2 = 0x20084000

.text           0x0000000000000000     0x2a70
 FILL mask 0xff
                0x0000000000000000                __vectors_start__ = ABSOLUTE (.)
 *(.isr_vector)
 .isr_vector    0x0000000000000000       0xcc ./Drivers/cr_startup_lpc175x_6x.o
                0x0000000000000000                g_pfnVectors
                0x00000000000000cc                . = ALIGN (0x4)
                0x00000000000000cc                __section_table_start = .
                0x00000000000000cc                __data_section_table = .
                0x00000000000000cc        0x4 LONG 0x2a70 LOADADDR (.data)
                0x00000000000000d0        0x4 LONG 0x10000000 ADDR (.data)
                0x00000000000000d4        0x4 LONG 0x8 SIZEOF (.data)
                0x00000000000000d8        0x4 LONG 0x2a70 LOADADDR (.data_RAM2)
                0x00000000000000dc        0x4 LONG 0x2007c000 ADDR (.data_RAM2)
                0x00000000000000e0        0x4 LONG 0x0 SIZEOF (.data_RAM2)
                0x00000000000000e4                __data_section_table_end = .
                0x00000000000000e4                __bss_section_table = .
                0x00000000000000e4        0x4 LONG 0x10000008 ADDR (.bss)
                0x00000000000000e8        0x4 LONG 0x3e8 SIZEOF (.bss)
                0x00000000000000ec        0x4 LONG 0x2007c000 ADDR (.bss_RAM2)
                0x00000000000000f0        0x4 LONG 0x0 SIZEOF (.bss_RAM2)
                0x00000000000000f4                __bss_section_table_end = .
                0x00000000000000f4                __section_table_end = .
 *(.after_vectors*)
 .after_vectors
                0x00000000000000f4      0x128 ./Drivers/cr_startup_lpc175x_6x.o
                0x00000000000000f4                data_init
                0x0000000000000136                bss_init
                0x000000000000016c                ResetISR
                0x00000000000001e0                NMI_Handler
                0x00000000000001e6                HardFault_Handler
                0x00000000000001ec                MemManage_Handler
                0x00000000000001f2                BusFault_Handler
                0x00000000000001f8                UsageFault_Handler
                0x00000000000001fe                SVC_Handler
                0x0000000000000204                DebugMon_Handler
                0x000000000000020a                PendSV_Handler
                0x0000000000000216                TIMER2_IRQHandler
                0x0000000000000216                RIT_IRQHandler
                0x0000000000000216                I2C0_IRQHandler
                0x0000000000000216                USBActivity_IRQHandler
                0x0000000000000216                PWM1_IRQHandler
                0x0000000000000216                I2C1_IRQHandler
                0x0000000000000216                EINT2_IRQHandler
                0x0000000000000216                UART1_IRQHandler
                0x0000000000000216                EINT3_IRQHandler
                0x0000000000000216                CANActivity_IRQHandler
                0x0000000000000216                TIMER3_IRQHandler
                0x0000000000000216                IntDefaultHandler
                0x0000000000000216                PLL0_IRQHandler
                0x0000000000000216                CAN_IRQHandler
                0x0000000000000216                PLL1_IRQHandler
                0x0000000000000216                SSP0_IRQHandler
                0x0000000000000216                I2S_IRQHandler
                0x0000000000000216                I2C2_IRQHandler
                0x0000000000000216                RTC_IRQHandler
                0x0000000000000216                SPI_IRQHandler
                0x0000000000000216                EINT1_IRQHandler
                0x0000000000000216                TIMER1_IRQHandler
                0x0000000000000216                UART2_IRQHandler
                0x0000000000000216                SSP1_IRQHandler
                0x0000000000000216                USB_IRQHandler
                0x0000000000000216                BOD_IRQHandler
                0x0000000000000216                WDT_IRQHandler
                0x0000000000000216                QEI_IRQHandler
                0x0000000000000216                EINT0_IRQHandler
                0x0000000000000216                DMA_IRQHandler
                0x0000000000000216                UART3_IRQHandler
                0x0000000000000216                MCPWM_IRQHandler
                0x0000000000000216                ENET_IRQHandler
                0x00000000000002fc                . = 0x2fc
 *fill*         0x000000000000021c       0xe0 ff
                0x00000000000002fc                PROVIDE (__CRP_WORD_START__, .)
 *(.crp)
 .crp           0x00000000000002fc        0x4 ./Drivers/crp.o
                0x00000000000002fc                CRP_WORD
                0x0000000000000300                PROVIDE (__CRP_WORD_END__, .)
                0x0000000000000001                ASSERT (! ((__CRP_WORD_START__ == __CRP_WORD_END__)), Linker CRP Enabled, but no CRP_WORD provided within application)
 *(.text*)
 .text.LCD_DisplayMsg
                0x0000000000000300       0x70 ./Primitivas/PR_LCD.o
                0x0000000000000300                LCD_DisplayMsg
 .text.ResetBuffers
                0x0000000000000370       0x20 ./Primitivas/PR_Mediana_5canales.o
                0x0000000000000370                ResetBuffers
 .text.GetBufferStatus
                0x0000000000000390       0x2c ./Primitivas/PR_Mediana_5canales.o
                0x0000000000000390                GetBufferStatus
 .text.Enlistar
                0x00000000000003bc      0x108 ./Primitivas/PR_Mediana_5canales.o
                0x00000000000003bc                Enlistar
 .text.bubble   0x00000000000004c4       0x98 ./Primitivas/PR_Mediana_5canales.o
                0x00000000000004c4                bubble
 .text.Mediana_de_Buffers
                0x000000000000055c      0x154 ./Primitivas/PR_Mediana_5canales.o
                0x000000000000055c                Mediana_de_Buffers
 .text.Mediana_Buffer
                0x00000000000006b0       0x52 ./Primitivas/PR_Mediana_5canales.o
                0x00000000000006b0                Mediana_Buffer
 .text.Preparar_y_Filtrar
                0x0000000000000702       0x48 ./Primitivas/PR_Mediana_5canales.o
                0x0000000000000702                Preparar_y_Filtrar
 *fill*         0x000000000000074a        0x2 ff
 .text.GetKey   0x000000000000074c       0x24 ./Primitivas/PR_Teclas.o
                0x000000000000074c                GetKey
 .text.U0_PushRx
                0x0000000000000770       0x4c ./Primitivas/PR_UART_0.o
                0x0000000000000770                U0_PushRx
 .text.U0_PopRx
                0x00000000000007bc       0x64 ./Primitivas/PR_UART_0.o
                0x00000000000007bc                U0_PopRx
 .text.U0_PushTx
                0x0000000000000820       0x64 ./Primitivas/PR_UART_0.o
                0x0000000000000820                U0_PushTx
 .text.U0_PopTx
                0x0000000000000884       0x64 ./Primitivas/PR_UART_0.o
                0x0000000000000884                U0_PopTx
 .text.TIMER0_IRQHandler
                0x00000000000008e8       0x3c ./Drivers/DR_ADC_5canales_Timer.o
                0x00000000000008e8                TIMER0_IRQHandler
 .text.ADC_Pins_Initialize
                0x0000000000000924       0x6c ./Drivers/DR_ADC_5canales_Timer.o
                0x0000000000000924                ADC_Pins_Initialize
 .text.ADC_InputSelect
                0x0000000000000990       0xa4 ./Drivers/DR_ADC_5canales_Timer.o
                0x0000000000000990                ADC_InputSelect
 .text.ADC_Start
                0x0000000000000a34       0x1c ./Drivers/DR_ADC_5canales_Timer.o
                0x0000000000000a34                ADC_Start
 .text.ADC_Stop
                0x0000000000000a50       0x1c ./Drivers/DR_ADC_5canales_Timer.o
                0x0000000000000a50                ADC_Stop
 .text.ADC_IRQHandler
                0x0000000000000a6c       0xe4 ./Drivers/DR_ADC_5canales_Timer.o
                0x0000000000000a6c                ADC_IRQHandler
 .text.TIMER0_ADC_FS_Config
                0x0000000000000b50       0x90 ./Drivers/DR_ADC_5canales_Timer.o
                0x0000000000000b50                TIMER0_ADC_FS_Config
 .text.TIMER0_ADC_Init
                0x0000000000000be0       0xac ./Drivers/DR_ADC_5canales_Timer.o
                0x0000000000000be0                TIMER0_ADC_Init
 .text.ADC_Init
                0x0000000000000c8c       0x88 ./Drivers/DR_ADC_5canales_Timer.o
                0x0000000000000c8c                ADC_Init
 .text.Start_Sampling
                0x0000000000000d14       0x34 ./Drivers/DR_ADC_5canales_Timer.o
                0x0000000000000d14                Start_Sampling
 .text.SetDIR   0x0000000000000d48       0x78 ./Drivers/DR_GPIO.o
                0x0000000000000d48                SetDIR
 .text.SetPIN   0x0000000000000dc0       0x50 ./Drivers/DR_GPIO.o
                0x0000000000000dc0                SetPIN
 .text.GetPIN   0x0000000000000e10       0x54 ./Drivers/DR_GPIO.o
                0x0000000000000e10                GetPIN
 .text.Kit_Init
                0x0000000000000e64       0x54 ./Drivers/DR_Init.o
                0x0000000000000e64                Kit_Init
 .text.PLL_Init
                0x0000000000000eb8      0x140 ./Drivers/DR_Init.o
                0x0000000000000eb8                PLL_Init
 .text.LED_Initialize
                0x0000000000000ff8       0x80 ./Drivers/DR_LED_IO.o
                0x0000000000000ff8                LED_Initialize
 .text.LED_Set  0x0000000000001078       0x70 ./Drivers/DR_LED_IO.o
                0x0000000000001078                LED_Set
 .text.SetPINSEL
                0x00000000000010e8       0x90 ./Drivers/DR_PINSEL.o
                0x00000000000010e8                SetPINSEL
 .text.SetResistorMode
                0x0000000000001178       0x84 ./Drivers/DR_PINSEL.o
                0x0000000000001178                SetResistorMode
 .text.SysTick_Handler
                0x00000000000011fc       0x58 ./Drivers/DR_SysTick.o
                0x00000000000011fc                SysTick_Handler
 .text.Ticks_Config
                0x0000000000001254       0xdc ./Drivers/DR_SysTick.o
                0x0000000000001254                Ticks_Config
 .text.SysTick_Init
                0x0000000000001330       0x8c ./Drivers/DR_SysTick.o
                0x0000000000001330                SysTick_Init
 .text.DriverTecladoHW
                0x00000000000013bc       0x5a ./Drivers/DR_Teclas.o
                0x00000000000013bc                DriverTecladoHW
 *fill*         0x0000000000001416        0x2 ff
 .text.Teclado5x1_SW_Debounce
                0x0000000000001418       0xa8 ./Drivers/DR_Teclas.o
                0x0000000000001418                Teclado5x1_SW_Debounce
 .text.Switches_Initialize
                0x00000000000014c0       0x80 ./Drivers/DR_Teclas.o
                0x00000000000014c0                Switches_Initialize
 .text.DriverSwitches
                0x0000000000001540       0x1e ./Drivers/DR_Teclas.o
                0x0000000000001540                DriverSwitches
 *fill*         0x000000000000155e        0x2 ff
 .text.UART0_IRQHandler
                0x0000000000001560       0xc4 ./Drivers/DR_UART_0.o
                0x0000000000001560                UART0_IRQHandler
 .text.UART0_Initialize
                0x0000000000001624       0xd4 ./Drivers/DR_UART_0.o
                0x0000000000001624                UART0_Initialize
 .text.U0_StartTx
                0x00000000000016f8       0x28 ./Drivers/DR_UART_0.o
                0x00000000000016f8                U0_StartTx
 .text.LCD_Init
                0x0000000000001720       0xc0 ./Drivers/FW_LCD.o
                0x0000000000001720                LCD_Init
 .text.LCD_Config
                0x00000000000017e0      0x114 ./Drivers/FW_LCD.o
                0x00000000000017e0                LCD_Config
 .text.LCD_Push
                0x00000000000018f4       0xc4 ./Drivers/FW_LCD.o
                0x00000000000018f4                LCD_Push
 .text.LCD_Pop  0x00000000000019b8       0x64 ./Drivers/FW_LCD.o
                0x00000000000019b8                LCD_Pop
 .text.LCD_Driver
                0x0000000000001a1c       0xd0 ./Drivers/FW_LCD.o
                0x0000000000001a1c                LCD_Driver
 .text.modulo   0x0000000000001aec       0x36 ./Aplicacion/AP_Mano_Muestreo.o
                0x0000000000001aec                modulo
 .text.Preparar_y_Enviar
                0x0000000000001b22       0x2c ./Aplicacion/AP_Mano_Muestreo.o
                0x0000000000001b22                Preparar_y_Enviar
 .text.EnviarDedo
                0x0000000000001b4e       0x3c ./Aplicacion/AP_Mano_Muestreo.o
                0x0000000000001b4e                EnviarDedo
 .text.EnviarMano
                0x0000000000001b8a       0xce ./Aplicacion/AP_Mano_Muestreo.o
                0x0000000000001b8a                EnviarMano
 .text.Preparar_Calibracion
                0x0000000000001c58      0x118 ./Aplicacion/AP_Mano_Muestreo.o
                0x0000000000001c58                Preparar_Calibracion
 .text.Calibrar
                0x0000000000001d70      0x12c ./Aplicacion/AP_Mano_Muestreo.o
                0x0000000000001d70                Calibrar
 .text.MDE_Calibrar
                0x0000000000001e9c      0x330 ./Aplicacion/AP_Mano_Muestreo.o
                0x0000000000001e9c                MDE_Calibrar
 .text.leer_comandos
                0x00000000000021cc       0x64 ./Aplicacion/AP_UART_0.o
                0x00000000000021cc                leer_comandos
 .text.RX_Mensajes
                0x0000000000002230       0xa4 ./Aplicacion/AP_UART_0.o
                0x0000000000002230                RX_Mensajes
 .text.MDE_Adquisidor
                0x00000000000022d4      0x138 ./Aplicacion/MDE_Adquisidor.o
                0x00000000000022d4                MDE_Adquisidor
 .text.main     0x000000000000240c       0x24 ./Aplicacion/main.o
                0x000000000000240c                main
 .text.__weak_main
                0x0000000000002430        0x4 /usr/local/mcuxpressoide-10.2.0_759/ide/tools/bin/../lib/gcc/arm-none-eabi/7.2.1/../../../../arm-none-eabi/lib/thumb/v7-m/libcr_c.a(__weak__main.o)
                0x0000000000002430                __main
                0x0000000000002430                __weak_main
 .text.__aeabi_ddiv
                0x0000000000002434      0x130 /usr/local/mcuxpressoide-10.2.0_759/ide/tools/bin/../lib/gcc/arm-none-eabi/7.2.1/thumb/v7-m/libcr_eabihelpers.a(double.o)
                0x0000000000002434                __aeabi_ddiv
 .text.__aeabi_d2uiz
                0x0000000000002564       0x30 /usr/local/mcuxpressoide-10.2.0_759/ide/tools/bin/../lib/gcc/arm-none-eabi/7.2.1/thumb/v7-m/libcr_eabihelpers.a(double.o)
                0x0000000000002564                __aeabi_d2uiz
 .text.__bhs_ui2d
                0x0000000000002594       0x46 /usr/local/mcuxpressoide-10.2.0_759/ide/tools/bin/../lib/gcc/arm-none-eabi/7.2.1/thumb/v7-m/libcr_eabihelpers.a(double.o)
                0x0000000000002594                __bhs_ui2d
 .text.__aeabi_ui2d
                0x00000000000025da        0x8 /usr/local/mcuxpressoide-10.2.0_759/ide/tools/bin/../lib/gcc/arm-none-eabi/7.2.1/thumb/v7-m/libcr_eabihelpers.a(double.o)
                0x00000000000025da                __aeabi_ui2d
 *fill*         0x00000000000025e2        0x2 ff
 .text.__aeabi_fmul
                0x00000000000025e4       0xb0 /usr/local/mcuxpressoide-10.2.0_759/ide/tools/bin/../lib/gcc/arm-none-eabi/7.2.1/thumb/v7-m/libcr_eabihelpers.a(float.o)
                0x00000000000025e4                __aeabi_fmul
 .text.__aeabi_fdiv
                0x0000000000002694       0xb8 /usr/local/mcuxpressoide-10.2.0_759/ide/tools/bin/../lib/gcc/arm-none-eabi/7.2.1/thumb/v7-m/libcr_eabihelpers.a(float.o)
                0x0000000000002694                __aeabi_fdiv
 .text.__aeabi_fsub
                0x000000000000274c       0xe0 /usr/local/mcuxpressoide-10.2.0_759/ide/tools/bin/../lib/gcc/arm-none-eabi/7.2.1/thumb/v7-m/libcr_eabihelpers.a(float.o)
                0x000000000000274c                __aeabi_fsub
 .text.__aeabi_fadd
                0x000000000000282c       0xb0 /usr/local/mcuxpressoide-10.2.0_759/ide/tools/bin/../lib/gcc/arm-none-eabi/7.2.1/thumb/v7-m/libcr_eabihelpers.a(float.o)
                0x000000000000282c                __aeabi_fadd
 .text.__aeabi_f2uiz
                0x00000000000028dc       0x28 /usr/local/mcuxpressoide-10.2.0_759/ide/tools/bin/../lib/gcc/arm-none-eabi/7.2.1/thumb/v7-m/libcr_eabihelpers.a(float.o)
                0x00000000000028dc                __aeabi_f2uiz
 .text.__bhs_ui2f
                0x0000000000002904       0x26 /usr/local/mcuxpressoide-10.2.0_759/ide/tools/bin/../lib/gcc/arm-none-eabi/7.2.1/thumb/v7-m/libcr_eabihelpers.a(float.o)
                0x0000000000002904                __bhs_ui2f
 .text.__aeabi_ui2f
                0x000000000000292a        0x8 /usr/local/mcuxpressoide-10.2.0_759/ide/tools/bin/../lib/gcc/arm-none-eabi/7.2.1/thumb/v7-m/libcr_eabihelpers.a(float.o)
                0x000000000000292a                __aeabi_ui2f
 *(.rodata .rodata.* .constdata .constdata.*)
 *fill*         0x0000000000002932        0x2 ff
 .rodata        0x0000000000002934       0xed ./Aplicacion/AP_Mano_Muestreo.o
 *fill*         0x0000000000002a21        0x3 ff
 .rodata        0x0000000000002a24       0x4c ./Aplicacion/MDE_Adquisidor.o
                0x0000000000002a70                . = ALIGN (0x4)

.glue_7         0x0000000000002a70        0x0
 .glue_7        0x0000000000002a70        0x0 linker stubs

.glue_7t        0x0000000000002a70        0x0
 .glue_7t       0x0000000000002a70        0x0 linker stubs

.vfp11_veneer   0x0000000000002a70        0x0
 .vfp11_veneer  0x0000000000002a70        0x0 linker stubs

.v4_bx          0x0000000000002a70        0x0
 .v4_bx         0x0000000000002a70        0x0 linker stubs

.iplt           0x0000000000002a70        0x0
 .iplt          0x0000000000002a70        0x0 ./Primitivas/PR_LCD.o

.rel.dyn        0x0000000000002a70        0x0
 .rel.iplt      0x0000000000002a70        0x0 ./Primitivas/PR_LCD.o

.ARM.extab
 *(.ARM.extab* .gnu.linkonce.armextab.*)
                0x0000000000002a70                __exidx_start = .

.ARM.exidx
 *(.ARM.exidx* .gnu.linkonce.armexidx.*)
                0x0000000000002a70                __exidx_end = .
                0x0000000000002a70                _etext = .

.data_RAM2      0x000000002007c000        0x0 load address 0x0000000000002a70
 FILL mask 0xff
                [!provide]                        PROVIDE (__start_data_RAM2, .)
 *(.ramfunc.$RAM2)
 *(.ramfunc.$RamAHB32)
 *(.data.$RAM2*)
 *(.data.$RamAHB32*)
                0x000000002007c000                . = ALIGN (0x4)
                [!provide]                        PROVIDE (__end_data_RAM2, .)

.uninit_RESERVED
                0x0000000010000000        0x0
 *(.bss.$RESERVED*)
                0x0000000010000000                . = ALIGN (0x4)
                0x0000000010000000                _end_uninit_RESERVED = .

.data           0x0000000010000000        0x8 load address 0x0000000000002a70
 FILL mask 0xff
                0x0000000010000000                _data = .
 *(vtable)
 *(.ramfunc*)
 *(.data*)
 .data.SampleRate
                0x0000000010000000        0x2 ./Drivers/DR_ADC_5canales_Timer.o
 .data.Key_Pressed
                0x0000000010000002        0x1 ./Drivers/DR_Teclas.o
                0x0000000010000002                Key_Pressed
 .data.estado.3666
                0x0000000010000003        0x1 ./Drivers/DR_Teclas.o
 .data.codigoAnterior.3665
                0x0000000010000004        0x1 ./Drivers/DR_Teclas.o
                0x0000000010000008                . = ALIGN (0x4)
 *fill*         0x0000000010000005        0x3 ff
                0x0000000010000008                _edata = .

.igot.plt       0x0000000010000008        0x0 load address 0x0000000000002a78
 .igot.plt      0x0000000010000008        0x0 ./Primitivas/PR_LCD.o

.bss_RAM2       0x000000002007c000        0x0
                [!provide]                        PROVIDE (__start_bss_RAM2, .)
 *(.bss.$RAM2*)
 *(.bss.$RamAHB32*)
                0x000000002007c000                . = ALIGN ((. != 0x0)?0x4:0x1)
                [!provide]                        PROVIDE (__end_bss_RAM2, .)

.bss            0x0000000010000008      0x3e8
                0x0000000010000008                _bss = .
 *(.bss*)
 .bss.inxBuffers
                0x0000000010000008        0x1 ./Primitivas/PR_Mediana_5canales.o
 .bss.BufferNumber
                0x0000000010000009        0x1 ./Primitivas/PR_Mediana_5canales.o
 *fill*         0x000000001000000a        0x2 
 .bss.BufferInput0
                0x000000001000000c       0x14 ./Primitivas/PR_Mediana_5canales.o
                0x000000001000000c                BufferInput0
 .bss.BufferInput1
                0x0000000010000020       0x14 ./Primitivas/PR_Mediana_5canales.o
                0x0000000010000020                BufferInput1
 .bss.BufferInput2
                0x0000000010000034       0x14 ./Primitivas/PR_Mediana_5canales.o
                0x0000000010000034                BufferInput2
 .bss.BufferInput3
                0x0000000010000048       0x14 ./Primitivas/PR_Mediana_5canales.o
                0x0000000010000048                BufferInput3
 .bss.BufferInput4
                0x000000001000005c       0x14 ./Primitivas/PR_Mediana_5canales.o
                0x000000001000005c                BufferInput4
 .bss.aux_cont  0x0000000010000070        0x4 ./Primitivas/PR_Mediana_5canales.o
                0x0000000010000070                aux_cont
 .bss.bufferRx  0x0000000010000074       0x20 ./Primitivas/PR_UART_0.o
 .bss.bufferTx  0x0000000010000094       0x20 ./Primitivas/PR_UART_0.o
 .bss.inx_Rx_in
                0x00000000100000b4        0x1 ./Primitivas/PR_UART_0.o
 .bss.inx_Rx_out
                0x00000000100000b5        0x1 ./Primitivas/PR_UART_0.o
 .bss.inx_Tx_in
                0x00000000100000b6        0x1 ./Primitivas/PR_UART_0.o
 .bss.inx_Tx_out
                0x00000000100000b7        0x1 ./Primitivas/PR_UART_0.o
 .bss.ADC_sample
                0x00000000100000b8        0x2 ./Drivers/DR_ADC_5canales_Timer.o
                0x00000000100000b8                ADC_sample
 .bss.ADC_dato_disponible
                0x00000000100000ba        0x1 ./Drivers/DR_ADC_5canales_Timer.o
                0x00000000100000ba                ADC_dato_disponible
 .bss.analogIn  0x00000000100000bb        0x1 ./Drivers/DR_ADC_5canales_Timer.o
 .bss.aux_cnt_Timer
                0x00000000100000bc        0x4 ./Drivers/DR_ADC_5canales_Timer.o
 .bss.aux_cnt_ADC
                0x00000000100000c0        0x4 ./Drivers/DR_ADC_5canales_Timer.o
 .bss.contTeclaEstable.3667
                0x00000000100000c4        0x1 ./Drivers/DR_Teclas.o
 .bss.f_U0_Tx   0x00000000100000c5        0x1 ./Drivers/DR_UART_0.o
                0x00000000100000c5                f_U0_Tx
 *fill*         0x00000000100000c6        0x2 
 .bss.buffer_LCD
                0x00000000100000c8       0xa0 ./Drivers/FW_LCD.o
                0x00000000100000c8                buffer_LCD
 .bss.indexIn_LCD
                0x0000000010000168        0x4 ./Drivers/FW_LCD.o
                0x0000000010000168                indexIn_LCD
 .bss.indexOut_LCD
                0x000000001000016c        0x4 ./Drivers/FW_LCD.o
                0x000000001000016c                indexOut_LCD
 .bss.LCD_delay
                0x0000000010000170        0x4 ./Drivers/FW_LCD.o
                0x0000000010000170                LCD_delay
 .bss.estadoEnable.3696
                0x0000000010000174        0x1 ./Drivers/FW_LCD.o
 .bss.CAL_inxBuffers
                0x0000000010000175        0x1 ./Aplicacion/AP_Mano_Muestreo.o
 *fill*         0x0000000010000176        0x2 
 .bss.CAL_Mano_Abierta
                0x0000000010000178       0xc8 ./Aplicacion/AP_Mano_Muestreo.o
                0x0000000010000178                CAL_Mano_Abierta
 .bss.CAL_Mano_Cerrada
                0x0000000010000240       0xc8 ./Aplicacion/AP_Mano_Muestreo.o
                0x0000000010000240                CAL_Mano_Cerrada
 .bss.CAL_Pulgar_Cerrado
                0x0000000010000308       0xc8 ./Aplicacion/AP_Mano_Muestreo.o
                0x0000000010000308                CAL_Pulgar_Cerrado
 .bss.CAL_rango
                0x00000000100003d0        0xa ./Aplicacion/AP_Mano_Muestreo.o
 .bss.estado_calibrar.3813
                0x00000000100003da        0x1 ./Aplicacion/AP_Mano_Muestreo.o
 .bss.estado_secuencia.3814
                0x00000000100003db        0x1 ./Aplicacion/AP_Mano_Muestreo.o
 .bss.command   0x00000000100003dc        0x1 ./Aplicacion/AP_UART_0.o
                0x00000000100003dc                command
 .bss.estado_rx.3665
                0x00000000100003dd        0x1 ./Aplicacion/AP_UART_0.o
 .bss.inx_msg_rx.3667
                0x00000000100003de        0x1 ./Aplicacion/AP_UART_0.o
 *fill*         0x00000000100003df        0x1 
 .bss.msg_rx.3666
                0x00000000100003e0        0x8 ./Aplicacion/AP_UART_0.o
 .bss.f_StartSampling
                0x00000000100003e8        0x1 ./Aplicacion/MDE_Adquisidor.o
                0x00000000100003e8                f_StartSampling
 .bss.f_StopSampling
                0x00000000100003e9        0x1 ./Aplicacion/MDE_Adquisidor.o
                0x00000000100003e9                f_StopSampling
 *fill*         0x00000000100003ea        0x2 
 .bss.estado_medidor
                0x00000000100003ec        0x4 ./Aplicacion/MDE_Adquisidor.o
 *(COMMON)
                0x00000000100003f0                . = ALIGN (0x4)
                0x00000000100003f0                _ebss = .
                [!provide]                        PROVIDE (end, .)

.noinit_RAM2    0x000000002007c000        0x0
 *(.noinit.$RAM2*)
 *(.noinit.$RamAHB32*)
                0x000000002007c000                . = ALIGN (0x4)

.noinit         0x00000000100003f0        0x0
                0x00000000100003f0                _noinit = .
 *(.noinit*)
                0x00000000100003f0                . = ALIGN (0x4)
                0x00000000100003f0                _end_noinit = .
                [!provide]                        PROVIDE (_pvHeapStart, DEFINED (__user_heap_base)?__user_heap_base:.)
                0x0000000010008000                PROVIDE (_vStackTop, DEFINED (__user_stack_top)?__user_stack_top:(__top_RamLoc32 - 0x0))
                0xffffffffefff74f2                PROVIDE (__valid_user_code_checksum, (0x0 - ((((((_vStackTop + (ResetISR + 0x1)) + (NMI_Handler + 0x1)) + (HardFault_Handler + 0x1)) + (DEFINED (MemManage_Handler)?MemManage_Handler:0x0 + 0x1)) + (DEFINED (BusFault_Handler)?BusFault_Handler:0x0 + 0x1)) + (DEFINED (UsageFault_Handler)?UsageFault_Handler:0x0 + 0x1))))
                0x0000000000000000                _image_start = LOADADDR (.text)
                0x0000000000002a78                _image_end = (LOADADDR (.data) + SIZEOF (.data))
                0x0000000000002a78                _image_size = (_image_end - _image_start)
OUTPUT(InfoII_TPO_Adquisidor_300.axf elf32-littlearm)

.debug_info     0x0000000000000000     0x1c59
 .debug_info    0x0000000000000000       0xca ./Primitivas/PR_LCD.o
 .debug_info    0x00000000000000ca      0x305 ./Primitivas/PR_Mediana_5canales.o
 .debug_info    0x00000000000003cf       0x93 ./Primitivas/PR_Teclas.o
 .debug_info    0x0000000000000462      0x1db ./Primitivas/PR_UART_0.o
 .debug_info    0x000000000000063d      0x22a ./Drivers/DR_ADC_5canales_Timer.o
 .debug_info    0x0000000000000867      0x166 ./Drivers/DR_GPIO.o
 .debug_info    0x00000000000009cd      0x109 ./Drivers/DR_Init.o
 .debug_info    0x0000000000000ad6       0xfc ./Drivers/DR_LED_IO.o
 .debug_info    0x0000000000000bd2      0x152 ./Drivers/DR_PINSEL.o
 .debug_info    0x0000000000000d24      0x171 ./Drivers/DR_SysTick.o
 .debug_info    0x0000000000000e95      0x11d ./Drivers/DR_Teclas.o
 .debug_info    0x0000000000000fb2      0x132 ./Drivers/DR_UART_0.o
 .debug_info    0x00000000000010e4      0x19a ./Drivers/FW_LCD.o
 .debug_info    0x000000000000127e      0x255 ./Drivers/cr_startup_lpc175x_6x.o
 .debug_info    0x00000000000014d3       0x3f ./Drivers/crp.o
 .debug_info    0x0000000000001512      0x3eb ./Aplicacion/AP_Mano_Muestreo.o
 .debug_info    0x00000000000018fd      0x11d ./Aplicacion/AP_UART_0.o
 .debug_info    0x0000000000001a1a      0x13f ./Aplicacion/MDE_Adquisidor.o
 .debug_info    0x0000000000001b59      0x100 ./Aplicacion/main.o

.debug_abbrev   0x0000000000000000      0xef8
 .debug_abbrev  0x0000000000000000       0x93 ./Primitivas/PR_LCD.o
 .debug_abbrev  0x0000000000000093      0x133 ./Primitivas/PR_Mediana_5canales.o
 .debug_abbrev  0x00000000000001c6       0x7b ./Primitivas/PR_Teclas.o
 .debug_abbrev  0x0000000000000241       0xf3 ./Primitivas/PR_UART_0.o
 .debug_abbrev  0x0000000000000334      0x120 ./Drivers/DR_ADC_5canales_Timer.o
 .debug_abbrev  0x0000000000000454       0xc5 ./Drivers/DR_GPIO.o
 .debug_abbrev  0x0000000000000519       0x82 ./Drivers/DR_Init.o
 .debug_abbrev  0x000000000000059b       0xb5 ./Drivers/DR_LED_IO.o
 .debug_abbrev  0x0000000000000650       0xa0 ./Drivers/DR_PINSEL.o
 .debug_abbrev  0x00000000000006f0       0xbe ./Drivers/DR_SysTick.o
 .debug_abbrev  0x00000000000007ae       0xe3 ./Drivers/DR_Teclas.o
 .debug_abbrev  0x0000000000000891       0xd6 ./Drivers/DR_UART_0.o
 .debug_abbrev  0x0000000000000967       0xfd ./Drivers/FW_LCD.o
 .debug_abbrev  0x0000000000000a64      0x114 ./Drivers/cr_startup_lpc175x_6x.o
 .debug_abbrev  0x0000000000000b78       0x36 ./Drivers/crp.o
 .debug_abbrev  0x0000000000000bae      0x14d ./Aplicacion/AP_Mano_Muestreo.o
 .debug_abbrev  0x0000000000000cfb       0xd3 ./Aplicacion/AP_UART_0.o
 .debug_abbrev  0x0000000000000dce       0xaf ./Aplicacion/MDE_Adquisidor.o
 .debug_abbrev  0x0000000000000e7d       0x7b ./Aplicacion/main.o

.debug_aranges  0x0000000000000000      0x428
 .debug_aranges
                0x0000000000000000       0x20 ./Primitivas/PR_LCD.o
 .debug_aranges
                0x0000000000000020       0x50 ./Primitivas/PR_Mediana_5canales.o
 .debug_aranges
                0x0000000000000070       0x20 ./Primitivas/PR_Teclas.o
 .debug_aranges
                0x0000000000000090       0x40 ./Primitivas/PR_UART_0.o
 .debug_aranges
                0x00000000000000d0       0x70 ./Drivers/DR_ADC_5canales_Timer.o
 .debug_aranges
                0x0000000000000140       0x30 ./Drivers/DR_GPIO.o
 .debug_aranges
                0x0000000000000170       0x28 ./Drivers/DR_Init.o
 .debug_aranges
                0x0000000000000198       0x38 ./Drivers/DR_LED_IO.o
 .debug_aranges
                0x00000000000001d0       0x30 ./Drivers/DR_PINSEL.o
 .debug_aranges
                0x0000000000000200       0x30 ./Drivers/DR_SysTick.o
 .debug_aranges
                0x0000000000000230       0x38 ./Drivers/DR_Teclas.o
 .debug_aranges
                0x0000000000000268       0x30 ./Drivers/DR_UART_0.o
 .debug_aranges
                0x0000000000000298       0x40 ./Drivers/FW_LCD.o
 .debug_aranges
                0x00000000000002d8       0x80 ./Drivers/cr_startup_lpc175x_6x.o
 .debug_aranges
                0x0000000000000358       0x18 ./Drivers/crp.o
 .debug_aranges
                0x0000000000000370       0x50 ./Aplicacion/AP_Mano_Muestreo.o
 .debug_aranges
                0x00000000000003c0       0x28 ./Aplicacion/AP_UART_0.o
 .debug_aranges
                0x00000000000003e8       0x20 ./Aplicacion/MDE_Adquisidor.o
 .debug_aranges
                0x0000000000000408       0x20 ./Aplicacion/main.o

.debug_ranges   0x0000000000000000      0x2f0
 .debug_ranges  0x0000000000000000       0x10 ./Primitivas/PR_LCD.o
 .debug_ranges  0x0000000000000010       0x40 ./Primitivas/PR_Mediana_5canales.o
 .debug_ranges  0x0000000000000050       0x10 ./Primitivas/PR_Teclas.o
 .debug_ranges  0x0000000000000060       0x30 ./Primitivas/PR_UART_0.o
 .debug_ranges  0x0000000000000090       0x60 ./Drivers/DR_ADC_5canales_Timer.o
 .debug_ranges  0x00000000000000f0       0x20 ./Drivers/DR_GPIO.o
 .debug_ranges  0x0000000000000110       0x18 ./Drivers/DR_Init.o
 .debug_ranges  0x0000000000000128       0x28 ./Drivers/DR_LED_IO.o
 .debug_ranges  0x0000000000000150       0x20 ./Drivers/DR_PINSEL.o
 .debug_ranges  0x0000000000000170       0x20 ./Drivers/DR_SysTick.o
 .debug_ranges  0x0000000000000190       0x28 ./Drivers/DR_Teclas.o
 .debug_ranges  0x00000000000001b8       0x20 ./Drivers/DR_UART_0.o
 .debug_ranges  0x00000000000001d8       0x30 ./Drivers/FW_LCD.o
 .debug_ranges  0x0000000000000208       0x70 ./Drivers/cr_startup_lpc175x_6x.o
 .debug_ranges  0x0000000000000278       0x40 ./Aplicacion/AP_Mano_Muestreo.o
 .debug_ranges  0x00000000000002b8       0x18 ./Aplicacion/AP_UART_0.o
 .debug_ranges  0x00000000000002d0       0x10 ./Aplicacion/MDE_Adquisidor.o
 .debug_ranges  0x00000000000002e0       0x10 ./Aplicacion/main.o

.debug_macro    0x0000000000000000     0x28a6
 .debug_macro   0x0000000000000000       0x61 ./Primitivas/PR_LCD.o
 .debug_macro   0x0000000000000061      0xa66 ./Primitivas/PR_LCD.o
 .debug_macro   0x0000000000000ac7       0x2e ./Primitivas/PR_LCD.o
 .debug_macro   0x0000000000000af5      0x7c3 ./Primitivas/PR_LCD.o
 .debug_macro   0x00000000000012b8       0x2e ./Primitivas/PR_LCD.o
 .debug_macro   0x00000000000012e6       0x46 ./Primitivas/PR_LCD.o
 .debug_macro   0x000000000000132c      0x11e ./Primitivas/PR_LCD.o
 .debug_macro   0x000000000000144a       0x28 ./Primitivas/PR_LCD.o
 .debug_macro   0x0000000000001472       0x59 ./Primitivas/PR_Mediana_5canales.o
 .debug_macro   0x00000000000014cb       0x10 ./Primitivas/PR_Mediana_5canales.o
 .debug_macro   0x00000000000014db       0x16 ./Primitivas/PR_Mediana_5canales.o
 .debug_macro   0x00000000000014f1       0x54 ./Primitivas/PR_Teclas.o
 .debug_macro   0x0000000000001545      0x7c9 ./Primitivas/PR_Teclas.o
 .debug_macro   0x0000000000001d0e       0x28 ./Primitivas/PR_Teclas.o
 .debug_macro   0x0000000000001d36       0x28 ./Primitivas/PR_Teclas.o
 .debug_macro   0x0000000000001d5e       0x5a ./Primitivas/PR_UART_0.o
 .debug_macro   0x0000000000001db8       0x56 ./Drivers/DR_ADC_5canales_Timer.o
 .debug_macro   0x0000000000001e0e       0x32 ./Drivers/DR_GPIO.o
 .debug_macro   0x0000000000001e40      0x102 ./Drivers/DR_Init.o
 .debug_macro   0x0000000000001f42       0x2e ./Drivers/DR_Init.o
 .debug_macro   0x0000000000001f70       0x2e ./Drivers/DR_Init.o
 .debug_macro   0x0000000000001f9e       0x3a ./Drivers/DR_Init.o
 .debug_macro   0x0000000000001fd8       0x16 ./Drivers/DR_Init.o
 .debug_macro   0x0000000000001fee       0x1c ./Drivers/DR_Init.o
 .debug_macro   0x000000000000200a       0x1c ./Drivers/DR_Init.o
 .debug_macro   0x0000000000002026       0x10 ./Drivers/DR_Init.o
 .debug_macro   0x0000000000002036       0x16 ./Drivers/DR_Init.o
 .debug_macro   0x000000000000204c       0x62 ./Drivers/DR_LED_IO.o
 .debug_macro   0x00000000000020ae       0x34 ./Drivers/DR_LED_IO.o
 .debug_macro   0x00000000000020e2       0x38 ./Drivers/DR_PINSEL.o
 .debug_macro   0x000000000000211a       0x40 ./Drivers/DR_PINSEL.o
 .debug_macro   0x000000000000215a      0x10a ./Drivers/DR_SysTick.o
 .debug_macro   0x0000000000002264       0x80 ./Drivers/DR_Teclas.o
 .debug_macro   0x00000000000022e4       0x9c ./Drivers/DR_UART_0.o
 .debug_macro   0x0000000000002380       0x53 ./Drivers/FW_LCD.o
 .debug_macro   0x00000000000023d3       0x1d ./Drivers/cr_startup_lpc175x_6x.o
 .debug_macro   0x00000000000023f0       0x1a ./Drivers/crp.o
 .debug_macro   0x000000000000240a       0x34 ./Drivers/crp.o
 .debug_macro   0x000000000000243e      0x14c ./Aplicacion/AP_Mano_Muestreo.o
 .debug_macro   0x000000000000258a       0x22 ./Aplicacion/AP_Mano_Muestreo.o
 .debug_macro   0x00000000000025ac       0x6f ./Aplicacion/AP_UART_0.o
 .debug_macro   0x000000000000261b       0xfe ./Aplicacion/MDE_Adquisidor.o
 .debug_macro   0x0000000000002719      0x10b ./Aplicacion/main.o
 .debug_macro   0x0000000000002824       0x82 ./Aplicacion/main.o

.debug_line     0x0000000000000000     0x24c0
 .debug_line    0x0000000000000000      0x18b ./Primitivas/PR_LCD.o
 .debug_line    0x000000000000018b      0x24e ./Primitivas/PR_Mediana_5canales.o
 .debug_line    0x00000000000003d9      0x172 ./Primitivas/PR_Teclas.o
 .debug_line    0x000000000000054b      0x1c5 ./Primitivas/PR_UART_0.o
 .debug_line    0x0000000000000710      0x250 ./Drivers/DR_ADC_5canales_Timer.o
 .debug_line    0x0000000000000960      0x107 ./Drivers/DR_GPIO.o
 .debug_line    0x0000000000000a67      0x30c ./Drivers/DR_Init.o
 .debug_line    0x0000000000000d73      0x155 ./Drivers/DR_LED_IO.o
 .debug_line    0x0000000000000ec8      0x113 ./Drivers/DR_PINSEL.o
 .debug_line    0x0000000000000fdb      0x2e6 ./Drivers/DR_SysTick.o
 .debug_line    0x00000000000012c1      0x15d ./Drivers/DR_Teclas.o
 .debug_line    0x000000000000141e      0x1ad ./Drivers/DR_UART_0.o
 .debug_line    0x00000000000015cb      0x1b8 ./Drivers/FW_LCD.o
 .debug_line    0x0000000000001783       0xd6 ./Drivers/cr_startup_lpc175x_6x.o
 .debug_line    0x0000000000001859       0x7d ./Drivers/crp.o
 .debug_line    0x00000000000018d6      0x3d5 ./Aplicacion/AP_Mano_Muestreo.o
 .debug_line    0x0000000000001cab      0x211 ./Aplicacion/AP_UART_0.o
 .debug_line    0x0000000000001ebc      0x2eb ./Aplicacion/MDE_Adquisidor.o
 .debug_line    0x00000000000021a7      0x319 ./Aplicacion/main.o

.debug_str      0x0000000000000000     0x5f38
 .debug_str     0x0000000000000000     0x49c9 ./Primitivas/PR_LCD.o
                                       0x4a11 (size before relaxing)
 .debug_str     0x00000000000049c9      0x1fc ./Primitivas/PR_Mediana_5canales.o
                                       0x488e (size before relaxing)
 .debug_str     0x0000000000004bc5       0x72 ./Primitivas/PR_Teclas.o
                                       0x46e2 (size before relaxing)
 .debug_str     0x0000000000004c37       0xea ./Primitivas/PR_UART_0.o
                                       0x4731 (size before relaxing)
 .debug_str     0x0000000000004d21      0x15d ./Drivers/DR_ADC_5canales_Timer.o
                                       0x484b (size before relaxing)
 .debug_str     0x0000000000004e7e       0x3c ./Drivers/DR_GPIO.o
                                       0x45ff (size before relaxing)
 .debug_str     0x0000000000004eba      0x167 ./Drivers/DR_Init.o
                                       0x4c7f (size before relaxing)
 .debug_str     0x0000000000005021       0x98 ./Drivers/DR_LED_IO.o
                                       0x477b (size before relaxing)
 .debug_str     0x00000000000050b9       0x5a ./Drivers/DR_PINSEL.o
                                       0x46a5 (size before relaxing)
 .debug_str     0x0000000000005113      0x108 ./Drivers/DR_SysTick.o
                                       0x4d4b (size before relaxing)
 .debug_str     0x000000000000521b      0x127 ./Drivers/DR_Teclas.o
                                       0x47e1 (size before relaxing)
 .debug_str     0x0000000000005342       0xf3 ./Drivers/DR_UART_0.o
                                       0x4762 (size before relaxing)
 .debug_str     0x0000000000005435       0x7d ./Drivers/FW_LCD.o
                                       0x4a67 (size before relaxing)
 .debug_str     0x00000000000054b2      0x1ca ./Drivers/cr_startup_lpc175x_6x.o
                                       0x2ede (size before relaxing)
 .debug_str     0x000000000000567c       0xed ./Drivers/crp.o
                                       0x2deb (size before relaxing)
 .debug_str     0x0000000000005769      0x266 ./Aplicacion/AP_Mano_Muestreo.o
                                       0x4eea (size before relaxing)
 .debug_str     0x00000000000059cf       0x83 ./Aplicacion/AP_UART_0.o
                                       0x4732 (size before relaxing)
 .debug_str     0x0000000000005a52       0x71 ./Aplicacion/MDE_Adquisidor.o
                                       0x4cc0 (size before relaxing)
 .debug_str     0x0000000000005ac3      0x475 ./Aplicacion/main.o
                                       0x50c4 (size before relaxing)

.comment        0x0000000000000000       0x7e
 .comment       0x0000000000000000       0x7e ./Primitivas/PR_LCD.o
                                         0x7f (size before relaxing)
 .comment       0x000000000000007e       0x7f ./Primitivas/PR_Mediana_5canales.o
 .comment       0x000000000000007e       0x7f ./Primitivas/PR_Teclas.o
 .comment       0x000000000000007e       0x7f ./Primitivas/PR_UART_0.o
 .comment       0x000000000000007e       0x7f ./Drivers/DR_ADC_5canales_Timer.o
 .comment       0x000000000000007e       0x7f ./Drivers/DR_GPIO.o
 .comment       0x000000000000007e       0x7f ./Drivers/DR_Init.o
 .comment       0x000000000000007e       0x7f ./Drivers/DR_LED_IO.o
 .comment       0x000000000000007e       0x7f ./Drivers/DR_PINSEL.o
 .comment       0x000000000000007e       0x7f ./Drivers/DR_SysTick.o
 .comment       0x000000000000007e       0x7f ./Drivers/DR_Teclas.o
 .comment       0x000000000000007e       0x7f ./Drivers/DR_UART_0.o
 .comment       0x000000000000007e       0x7f ./Drivers/FW_LCD.o
 .comment       0x000000000000007e       0x7f ./Drivers/cr_startup_lpc175x_6x.o
 .comment       0x000000000000007e       0x7f ./Drivers/crp.o
 .comment       0x000000000000007e       0x7f ./Aplicacion/AP_Mano_Muestreo.o
 .comment       0x000000000000007e       0x7f ./Aplicacion/AP_UART_0.o
 .comment       0x000000000000007e       0x7f ./Aplicacion/MDE_Adquisidor.o
 .comment       0x000000000000007e       0x7f ./Aplicacion/main.o
 .comment       0x000000000000007e       0x7f /usr/local/mcuxpressoide-10.2.0_759/ide/tools/bin/../lib/gcc/arm-none-eabi/7.2.1/../../../../arm-none-eabi/lib/thumb/v7-m/libcr_c.a(__weak__main.o)
 .comment       0x000000000000007e       0x7f /usr/local/mcuxpressoide-10.2.0_759/ide/tools/bin/../lib/gcc/arm-none-eabi/7.2.1/thumb/v7-m/libcr_eabihelpers.a(double.o)
 .comment       0x000000000000007e       0x7f /usr/local/mcuxpressoide-10.2.0_759/ide/tools/bin/../lib/gcc/arm-none-eabi/7.2.1/thumb/v7-m/libcr_eabihelpers.a(float.o)

.ARM.attributes
                0x0000000000000000       0x33
 .ARM.attributes
                0x0000000000000000       0x33 ./Primitivas/PR_LCD.o
 .ARM.attributes
                0x0000000000000033       0x33 ./Primitivas/PR_Mediana_5canales.o
 .ARM.attributes
                0x0000000000000066       0x33 ./Primitivas/PR_Teclas.o
 .ARM.attributes
                0x0000000000000099       0x33 ./Primitivas/PR_UART_0.o
 .ARM.attributes
                0x00000000000000cc       0x33 ./Drivers/DR_ADC_5canales_Timer.o
 .ARM.attributes
                0x00000000000000ff       0x33 ./Drivers/DR_GPIO.o
 .ARM.attributes
                0x0000000000000132       0x33 ./Drivers/DR_Init.o
 .ARM.attributes
                0x0000000000000165       0x33 ./Drivers/DR_LED_IO.o
 .ARM.attributes
                0x0000000000000198       0x33 ./Drivers/DR_PINSEL.o
 .ARM.attributes
                0x00000000000001cb       0x33 ./Drivers/DR_SysTick.o
 .ARM.attributes
                0x00000000000001fe       0x33 ./Drivers/DR_Teclas.o
 .ARM.attributes
                0x0000000000000231       0x33 ./Drivers/DR_UART_0.o
 .ARM.attributes
                0x0000000000000264       0x33 ./Drivers/FW_LCD.o
 .ARM.attributes
                0x0000000000000297       0x33 ./Drivers/cr_startup_lpc175x_6x.o
 .ARM.attributes
                0x00000000000002ca       0x33 ./Drivers/crp.o
 .ARM.attributes
                0x00000000000002fd       0x33 ./Aplicacion/AP_Mano_Muestreo.o
 .ARM.attributes
                0x0000000000000330       0x33 ./Aplicacion/AP_UART_0.o
 .ARM.attributes
                0x0000000000000363       0x33 ./Aplicacion/MDE_Adquisidor.o
 .ARM.attributes
                0x0000000000000396       0x33 ./Aplicacion/main.o
 .ARM.attributes
                0x00000000000003c9       0x33 /usr/local/mcuxpressoide-10.2.0_759/ide/tools/bin/../lib/gcc/arm-none-eabi/7.2.1/../../../../arm-none-eabi/lib/thumb/v7-m/libcr_c.a(__weak__main.o)
 .ARM.attributes
                0x00000000000003fc       0x33 /usr/local/mcuxpressoide-10.2.0_759/ide/tools/bin/../lib/gcc/arm-none-eabi/7.2.1/thumb/v7-m/libcr_eabihelpers.a(double.o)
 .ARM.attributes
                0x000000000000042f       0x33 /usr/local/mcuxpressoide-10.2.0_759/ide/tools/bin/../lib/gcc/arm-none-eabi/7.2.1/thumb/v7-m/libcr_eabihelpers.a(float.o)

.debug_frame    0x0000000000000000      0xb44
 .debug_frame   0x0000000000000000       0x34 ./Primitivas/PR_LCD.o
 .debug_frame   0x0000000000000034      0x118 ./Primitivas/PR_Mediana_5canales.o
 .debug_frame   0x000000000000014c       0x38 ./Primitivas/PR_Teclas.o
 .debug_frame   0x0000000000000184       0xd0 ./Primitivas/PR_UART_0.o
 .debug_frame   0x0000000000000254      0x174 ./Drivers/DR_ADC_5canales_Timer.o
 .debug_frame   0x00000000000003c8       0x88 ./Drivers/DR_GPIO.o
 .debug_frame   0x0000000000000450       0x4c ./Drivers/DR_Init.o
 .debug_frame   0x000000000000049c       0x98 ./Drivers/DR_LED_IO.o
 .debug_frame   0x0000000000000534       0x88 ./Drivers/DR_PINSEL.o
 .debug_frame   0x00000000000005bc       0x74 ./Drivers/DR_SysTick.o
 .debug_frame   0x0000000000000630       0x94 ./Drivers/DR_Teclas.o
 .debug_frame   0x00000000000006c4       0x78 ./Drivers/DR_UART_0.o
 .debug_frame   0x000000000000073c       0xc4 ./Drivers/FW_LCD.o
 .debug_frame   0x0000000000000800      0x170 ./Drivers/cr_startup_lpc175x_6x.o
 .debug_frame   0x0000000000000970      0x114 ./Aplicacion/AP_Mano_Muestreo.o
 .debug_frame   0x0000000000000a84       0x5c ./Aplicacion/AP_UART_0.o
 .debug_frame   0x0000000000000ae0       0x34 ./Aplicacion/MDE_Adquisidor.o
 .debug_frame   0x0000000000000b14       0x30 ./Aplicacion/main.o
